target datalayout = "e-m:e-p270:32:32-p271:32:32-p272:64:64-i64:64-i128:128-f80:128-n8:16:32:64-S128"
target triple = "x86_64-pc-linux-gnu"

%"class.pbrt::ParameterDictionary" = type <{ %"class.pbrt::InlinedVector", ptr, i32, [4 x i8] }>
%"class.pbrt::InlinedVector" = type { %"class.pstd::pmr::polymorphic_allocator", ptr, %union.anon, i64, i64 }
%"class.pstd::pmr::polymorphic_allocator" = type { ptr }
%union.anon = type { [8 x ptr] }

@.str = private unnamed_addr constant [116 x i8] c"generated/home/dtcxzyw/WorkSpace/Projects/compilers/llvm-opt-benchmark/bench/pbrt-v4/pbrt-v4/src/pbrt/paramdict.cpp\00", align 1
@.str.2 = private unnamed_addr constant [17 x i8] c"Check failed: %s\00", align 1
@.str.3 = private unnamed_addr constant [11 x i8] c"colorSpace\00", align 1

; Function Attrs: inlinehint mustprogress nounwind uwtable
define linkonce_odr dso_local void @_ZSt4swapIPN4pbrt15ParsedParameterEENSt9enable_ifIXsr6__and_ISt6__not_ISt15__is_tuple_likeIT_EESt21is_move_constructibleIS6_ESt18is_move_assignableIS6_EEE5valueEvE4typeERS6_SF_(ptr noundef nonnull align 8 dereferenceable(8) %0, ptr noundef nonnull align 8 dereferenceable(8) %1) #6 comdat {
  %3 = alloca ptr, align 8
  %4 = alloca ptr, align 8
  %5 = alloca ptr, align 8
  store ptr %0, ptr %3, align 8, !tbaa !37
  store ptr %1, ptr %4, align 8, !tbaa !37
  call void @llvm.lifetime.start.p0(i64 8, ptr %5) #10
  %6 = load ptr, ptr %3, align 8, !tbaa !37
  %7 = load ptr, ptr %6, align 8, !tbaa !42
  store ptr %7, ptr %5, align 8, !tbaa !42
  %8 = load ptr, ptr %4, align 8, !tbaa !37
  %9 = load ptr, ptr %8, align 8, !tbaa !42
  %10 = load ptr, ptr %3, align 8, !tbaa !37
  store ptr %9, ptr %10, align 8, !tbaa !42
  %11 = load ptr, ptr %5, align 8, !tbaa !42
  %12 = load ptr, ptr %4, align 8, !tbaa !37
  store ptr %11, ptr %12, align 8, !tbaa !42
  call void @llvm.lifetime.end.p0(i64 8, ptr %5) #10
  ret void
}

; Function Attrs: inlinehint mustprogress nounwind uwtable
define linkonce_odr dso_local void @_ZSt9iter_swapIPPN4pbrt15ParsedParameterES3_EvT_T0_(ptr noundef %0, ptr noundef %1) #6 comdat {
  %3 = alloca ptr, align 8
  %4 = alloca ptr, align 8
  store ptr %0, ptr %3, align 8, !tbaa !37
  store ptr %1, ptr %4, align 8, !tbaa !37
  %5 = load ptr, ptr %3, align 8, !tbaa !37
  %6 = load ptr, ptr %4, align 8, !tbaa !37
  call void @_ZSt4swapIPN4pbrt15ParsedParameterEENSt9enable_ifIXsr6__and_ISt6__not_ISt15__is_tuple_likeIT_EESt21is_move_constructibleIS6_ESt18is_move_assignableIS6_EEE5valueEvE4typeERS6_SF_(ptr noundef nonnull align 8 dereferenceable(8) %5, ptr noundef nonnull align 8 dereferenceable(8) %6) #10
  ret void
}

; Function Attrs: mustprogress uwtable
define linkonce_odr dso_local void @_ZSt9__reverseIPPN4pbrt15ParsedParameterEEvT_S4_St26random_access_iterator_tag(ptr noundef %0, ptr noundef %1) #1 comdat {
  %3 = alloca ptr, align 8
  %4 = alloca ptr, align 8
  store ptr %0, ptr %3, align 8, !tbaa !37
  store ptr %1, ptr %4, align 8, !tbaa !37
  %5 = load ptr, ptr %3, align 8, !tbaa !37
  %6 = load ptr, ptr %4, align 8, !tbaa !37
  %7 = icmp eq ptr %5, %6
  br i1 %7, label %8, label %9

8:                                                ; preds = %2
  br label %23

9:                                                ; preds = %2
  %10 = load ptr, ptr %4, align 8, !tbaa !37
  %11 = getelementptr inbounds ptr, ptr %10, i32 -1
  store ptr %11, ptr %4, align 8, !tbaa !37
  br label %12

12:                                               ; preds = %16, %9
  %13 = load ptr, ptr %3, align 8, !tbaa !37
  %14 = load ptr, ptr %4, align 8, !tbaa !37
  %15 = icmp ult ptr %13, %14
  br i1 %15, label %16, label %23

16:                                               ; preds = %12
  %17 = load ptr, ptr %3, align 8, !tbaa !37
  %18 = load ptr, ptr %4, align 8, !tbaa !37
  call void @_ZSt9iter_swapIPPN4pbrt15ParsedParameterES3_EvT_T0_(ptr noundef %17, ptr noundef %18)
  %19 = load ptr, ptr %3, align 8, !tbaa !37
  %20 = getelementptr inbounds nuw ptr, ptr %19, i32 1
  store ptr %20, ptr %3, align 8, !tbaa !37
  %21 = load ptr, ptr %4, align 8, !tbaa !37
  %22 = getelementptr inbounds ptr, ptr %21, i32 -1
  store ptr %22, ptr %4, align 8, !tbaa !37
  br label %12, !llvm.loop !387

23:                                               ; preds = %8, %12
  ret void
}

; Function Attrs: inlinehint mustprogress nounwind uwtable
define linkonce_odr dso_local void @_ZSt19__iterator_categoryIPPN4pbrt15ParsedParameterEENSt15iterator_traitsIT_E17iterator_categoryERKS5_(ptr noundef nonnull align 8 dereferenceable(8) %0) #6 comdat {
  %2 = alloca ptr, align 8
  store ptr %0, ptr %2, align 8, !tbaa !388
  ret void
}

; Function Attrs: mustprogress nounwind uwtable
define linkonce_odr dso_local void @_ZN4pstd3pmr21polymorphic_allocatorIPN4pbrt15ParsedParameterEE9constructIS4_JS4_EEEvPT_DpOT0_(ptr noundef nonnull align 8 dereferenceable(8) %0, ptr noundef %1, ptr noundef nonnull align 8 dereferenceable(8) %2) #3 comdat align 2 {
  %4 = alloca ptr, align 8
  %5 = alloca ptr, align 8
  %6 = alloca ptr, align 8
  store ptr %0, ptr %4, align 8, !tbaa !384
  store ptr %1, ptr %5, align 8, !tbaa !37
  store ptr %2, ptr %6, align 8, !tbaa !37
  %7 = load ptr, ptr %5, align 8, !tbaa !37
  %8 = load ptr, ptr %6, align 8, !tbaa !37
  %9 = load ptr, ptr %8, align 8, !tbaa !42
  store ptr %9, ptr %7, align 8, !tbaa !42
  ret void
}

; Function Attrs: inlinehint mustprogress uwtable
define linkonce_odr dso_local void @_ZSt7reverseIPPN4pbrt15ParsedParameterEEvT_S4_(ptr noundef %0, ptr noundef %1) #4 comdat {
  %3 = alloca ptr, align 8
  %4 = alloca ptr, align 8
  store ptr %0, ptr %3, align 8, !tbaa !37
  store ptr %1, ptr %4, align 8, !tbaa !37
  %5 = load ptr, ptr %3, align 8, !tbaa !37
  %6 = load ptr, ptr %4, align 8, !tbaa !37
  call void @_ZSt19__iterator_categoryIPPN4pbrt15ParsedParameterEENSt15iterator_traitsIT_E17iterator_categoryERKS5_(ptr noundef nonnull align 8 dereferenceable(8) %3)
  call void @_ZSt9__reverseIPPN4pbrt15ParsedParameterEEvT_S4_St26random_access_iterator_tag(ptr noundef %5, ptr noundef %6)
  ret void
}

; Function Attrs: mustprogress nounwind uwtable
define linkonce_odr dso_local noundef ptr @_ZN4pbrt13InlinedVectorIPNS_15ParsedParameterELi8EN4pstd3pmr21polymorphic_allocatorIS2_EEE3endEv(ptr noundef nonnull align 8 dereferenceable(96) %0) #3 comdat align 2 {
  %2 = alloca ptr, align 8
  store ptr %0, ptr %2, align 8, !tbaa !15
  %3 = load ptr, ptr %2, align 8
  %4 = call noundef ptr @_ZN4pbrt13InlinedVectorIPNS_15ParsedParameterELi8EN4pstd3pmr21polymorphic_allocatorIS2_EEE5beginEv(ptr noundef nonnull align 8 dereferenceable(96) %3)
  %5 = getelementptr inbounds nuw %"class.pbrt::InlinedVector", ptr %3, i32 0, i32 4
  %6 = load i64, ptr %5, align 8, !tbaa !33
  %7 = getelementptr inbounds nuw ptr, ptr %4, i64 %6
  ret ptr %7
}

; Function Attrs: mustprogress nounwind uwtable
define linkonce_odr dso_local noundef ptr @_ZN4pbrt13InlinedVectorIPNS_15ParsedParameterELi8EN4pstd3pmr21polymorphic_allocatorIS2_EEE5beginEv(ptr noundef nonnull align 8 dereferenceable(96) %0) #3 comdat align 2 {
  %2 = alloca ptr, align 8
  store ptr %0, ptr %2, align 8, !tbaa !15
  %3 = load ptr, ptr %2, align 8
  %4 = getelementptr inbounds nuw %"class.pbrt::InlinedVector", ptr %3, i32 0, i32 1
  %5 = load ptr, ptr %4, align 8, !tbaa !31
  %6 = icmp ne ptr %5, null
  br i1 %6, label %7, label %10

7:                                                ; preds = %1
  %8 = getelementptr inbounds nuw %"class.pbrt::InlinedVector", ptr %3, i32 0, i32 1
  %9 = load ptr, ptr %8, align 8, !tbaa !31
  br label %13

10:                                               ; preds = %1
  %11 = getelementptr inbounds nuw %"class.pbrt::InlinedVector", ptr %3, i32 0, i32 2
  %12 = getelementptr inbounds [8 x ptr], ptr %11, i64 0, i64 0
  br label %13

13:                                               ; preds = %10, %7
  %14 = phi ptr [ %9, %7 ], [ %12, %10 ]
  ret ptr %14
}

; Function Attrs: mustprogress nounwind uwtable
define linkonce_odr dso_local noundef i64 @_ZNK4pbrt13InlinedVectorIPNS_15ParsedParameterELi8EN4pstd3pmr21polymorphic_allocatorIS2_EEE4sizeEv(ptr noundef nonnull align 8 dereferenceable(96) %0) #3 comdat align 2 {
  %2 = alloca ptr, align 8
  store ptr %0, ptr %2, align 8, !tbaa !15
  %3 = load ptr, ptr %2, align 8
  %4 = getelementptr inbounds nuw %"class.pbrt::InlinedVector", ptr %3, i32 0, i32 4
  %5 = load i64, ptr %4, align 8, !tbaa !33
  ret i64 %5
}

; Function Attrs: mustprogress uwtable
define linkonce_odr dso_local void @_ZN4pbrt13InlinedVectorIPNS_15ParsedParameterELi8EN4pstd3pmr21polymorphic_allocatorIS2_EEEC2EOS7_(ptr noundef nonnull align 8 dereferenceable(96) %0, ptr noundef nonnull align 8 dereferenceable(96) %1) unnamed_addr #1 comdat align 2 {
  %3 = alloca ptr, align 8
  %4 = alloca ptr, align 8
  %5 = alloca i32, align 4
  store ptr %0, ptr %3, align 8, !tbaa !15
  store ptr %1, ptr %4, align 8, !tbaa !15
  %6 = load ptr, ptr %3, align 8
  %7 = getelementptr inbounds nuw %"class.pbrt::InlinedVector", ptr %6, i32 0, i32 0
  %8 = load ptr, ptr %4, align 8, !tbaa !15
  %9 = getelementptr inbounds nuw %"class.pbrt::InlinedVector", ptr %8, i32 0, i32 0
  call void @llvm.memcpy.p0.p0.i64(ptr align 8 %7, ptr align 8 %9, i64 8, i1 false), !tbaa.struct !29
  %10 = getelementptr inbounds nuw %"class.pbrt::InlinedVector", ptr %6, i32 0, i32 1
  store ptr null, ptr %10, align 8, !tbaa !31
  %11 = getelementptr inbounds nuw %"class.pbrt::InlinedVector", ptr %6, i32 0, i32 3
  store i64 0, ptr %11, align 8, !tbaa !32
  %12 = getelementptr inbounds nuw %"class.pbrt::InlinedVector", ptr %6, i32 0, i32 4
  store i64 0, ptr %12, align 8, !tbaa !33
  %13 = load ptr, ptr %4, align 8, !tbaa !15
  %14 = getelementptr inbounds nuw %"class.pbrt::InlinedVector", ptr %13, i32 0, i32 4
  %15 = load i64, ptr %14, align 8, !tbaa !33
  %16 = getelementptr inbounds nuw %"class.pbrt::InlinedVector", ptr %6, i32 0, i32 4
  store i64 %15, ptr %16, align 8, !tbaa !33
  %17 = load ptr, ptr %4, align 8, !tbaa !15
  %18 = getelementptr inbounds nuw %"class.pbrt::InlinedVector", ptr %17, i32 0, i32 3
  %19 = load i64, ptr %18, align 8, !tbaa !32
  %20 = getelementptr inbounds nuw %"class.pbrt::InlinedVector", ptr %6, i32 0, i32 3
  store i64 %19, ptr %20, align 8, !tbaa !32
  %21 = load ptr, ptr %4, align 8, !tbaa !15
  %22 = getelementptr inbounds nuw %"class.pbrt::InlinedVector", ptr %21, i32 0, i32 1
  %23 = load ptr, ptr %22, align 8, !tbaa !31
  %24 = getelementptr inbounds nuw %"class.pbrt::InlinedVector", ptr %6, i32 0, i32 1
  store ptr %23, ptr %24, align 8, !tbaa !31
  %25 = load ptr, ptr %4, align 8, !tbaa !15
  %26 = getelementptr inbounds nuw %"class.pbrt::InlinedVector", ptr %25, i32 0, i32 4
  %27 = load i64, ptr %26, align 8, !tbaa !33
  %28 = icmp ule i64 %27, 8
  br i1 %28, label %29, label %54

29:                                               ; preds = %2
  call void @llvm.lifetime.start.p0(i64 4, ptr %5) #10
  store i32 0, ptr %5, align 4, !tbaa !34
  br label %30

30:                                               ; preds = %50, %29
  %31 = load i32, ptr %5, align 4, !tbaa !34
  %32 = sext i32 %31 to i64
  %33 = load ptr, ptr %4, align 8, !tbaa !15
  %34 = getelementptr inbounds nuw %"class.pbrt::InlinedVector", ptr %33, i32 0, i32 4
  %35 = load i64, ptr %34, align 8, !tbaa !33
  %36 = icmp ult i64 %32, %35
  br i1 %36, label %38, label %37

37:                                               ; preds = %30
  call void @llvm.lifetime.end.p0(i64 4, ptr %5) #10
  br label %53

38:                                               ; preds = %30
  %39 = getelementptr inbounds nuw %"class.pbrt::InlinedVector", ptr %6, i32 0, i32 0
  %40 = getelementptr inbounds nuw %"class.pbrt::InlinedVector", ptr %6, i32 0, i32 2
  %41 = getelementptr inbounds [8 x ptr], ptr %40, i64 0, i64 0
  %42 = load i32, ptr %5, align 4, !tbaa !34
  %43 = sext i32 %42 to i64
  %44 = getelementptr inbounds ptr, ptr %41, i64 %43
  %45 = load ptr, ptr %4, align 8, !tbaa !15
  %46 = getelementptr inbounds nuw %"class.pbrt::InlinedVector", ptr %45, i32 0, i32 2
  %47 = load i32, ptr %5, align 4, !tbaa !34
  %48 = sext i32 %47 to i64
  %49 = getelementptr inbounds [8 x ptr], ptr %46, i64 0, i64 %48
  call void @_ZN4pstd3pmr21polymorphic_allocatorIPN4pbrt15ParsedParameterEE9constructIS4_JS4_EEEvPT_DpOT0_(ptr noundef nonnull align 8 dereferenceable(8) %39, ptr noundef %44, ptr noundef nonnull align 8 dereferenceable(8) %49)
  br label %50

50:                                               ; preds = %38
  %51 = load i32, ptr %5, align 4, !tbaa !34
  %52 = add nsw i32 %51, 1
  store i32 %52, ptr %5, align 4, !tbaa !34
  br label %30, !llvm.loop !35

53:                                               ; preds = %37
  br label %57

54:                                               ; preds = %2
  %55 = load ptr, ptr %4, align 8, !tbaa !15
  %56 = getelementptr inbounds nuw %"class.pbrt::InlinedVector", ptr %55, i32 0, i32 4
  store i64 0, ptr %56, align 8, !tbaa !33
  br label %57

57:                                               ; preds = %54, %53
  %58 = load ptr, ptr %4, align 8, !tbaa !15
  %59 = getelementptr inbounds nuw %"class.pbrt::InlinedVector", ptr %58, i32 0, i32 3
  store i64 0, ptr %59, align 8, !tbaa !32
  %60 = load ptr, ptr %4, align 8, !tbaa !15
  %61 = getelementptr inbounds nuw %"class.pbrt::InlinedVector", ptr %60, i32 0, i32 1
  store ptr null, ptr %61, align 8, !tbaa !31
  ret void
}

; Function Attrs: mustprogress uwtable
define dso_local void @_ZN4pbrt19ParameterDictionaryC2ENS_13InlinedVectorIPNS_15ParsedParameterELi8EN4pstd3pmr21polymorphic_allocatorIS3_EEEEPKNS_13RGBColorSpaceE(ptr noundef nonnull align 8 dereferenceable(108) %0, ptr noundef %1, ptr noundef %2) unnamed_addr #1 align 2 personality ptr @__gxx_personality_v0 {
  %4 = alloca ptr, align 8
  %5 = alloca ptr, align 8
  %6 = alloca ptr, align 8
  %7 = alloca ptr, align 8
  %8 = alloca i32, align 4
  store ptr %0, ptr %4, align 8, !tbaa !13
  store ptr %1, ptr %5, align 8, !tbaa !15
  store ptr %2, ptr %6, align 8, !tbaa !17
  %9 = load ptr, ptr %4, align 8
  %10 = getelementptr inbounds nuw %"class.pbrt::ParameterDictionary", ptr %9, i32 0, i32 0
  call void @_ZN4pbrt13InlinedVectorIPNS_15ParsedParameterELi8EN4pstd3pmr21polymorphic_allocatorIS2_EEEC2EOS7_(ptr noundef nonnull align 8 dereferenceable(96) %10, ptr noundef nonnull align 8 dereferenceable(96) %1)
  %11 = getelementptr inbounds nuw %"class.pbrt::ParameterDictionary", ptr %9, i32 0, i32 1
  %12 = load ptr, ptr %6, align 8, !tbaa !17
  store ptr %12, ptr %11, align 8, !tbaa !19
  %13 = getelementptr inbounds nuw %"class.pbrt::ParameterDictionary", ptr %9, i32 0, i32 0
  %14 = invoke noundef i64 @_ZNK4pbrt13InlinedVectorIPNS_15ParsedParameterELi8EN4pstd3pmr21polymorphic_allocatorIS2_EEE4sizeEv(ptr noundef nonnull align 8 dereferenceable(96) %13)
          to label %15 unwind label %29

15:                                               ; preds = %3
  %16 = trunc i64 %14 to i32
  %17 = getelementptr inbounds nuw %"class.pbrt::ParameterDictionary", ptr %9, i32 0, i32 2
  store i32 %16, ptr %17, align 8, !tbaa !28
  %18 = getelementptr inbounds nuw %"class.pbrt::ParameterDictionary", ptr %9, i32 0, i32 0
  %19 = invoke noundef ptr @_ZN4pbrt13InlinedVectorIPNS_15ParsedParameterELi8EN4pstd3pmr21polymorphic_allocatorIS2_EEE5beginEv(ptr noundef nonnull align 8 dereferenceable(96) %18)
          to label %20 unwind label %29

20:                                               ; preds = %15
  %21 = getelementptr inbounds nuw %"class.pbrt::ParameterDictionary", ptr %9, i32 0, i32 0
  %22 = invoke noundef ptr @_ZN4pbrt13InlinedVectorIPNS_15ParsedParameterELi8EN4pstd3pmr21polymorphic_allocatorIS2_EEE3endEv(ptr noundef nonnull align 8 dereferenceable(96) %21)
          to label %23 unwind label %29

23:                                               ; preds = %20
  invoke void @_ZSt7reverseIPPN4pbrt15ParsedParameterEEvT_S4_(ptr noundef %19, ptr noundef %22)
          to label %24 unwind label %29

24:                                               ; preds = %23
  %25 = load ptr, ptr %6, align 8, !tbaa !17
  %26 = icmp ne ptr %25, null
  br i1 %26, label %34, label %27

27:                                               ; preds = %24
  invoke void @_ZN4pbrt8LogFatalIJRA11_KcEEEvNS_8LogLevelEPS1_iS5_DpOT_(i32 noundef 2, ptr noundef @.str, i32 noundef 146, ptr noundef @.str.2, ptr noundef nonnull align 1 dereferenceable(11) @.str.3) #21
          to label %28 unwind label %29

28:                                               ; preds = %27
  unreachable

29:                                               ; preds = %34, %27, %23, %20, %15, %3
  %30 = landingpad { ptr, i32 }
          cleanup
  %31 = extractvalue { ptr, i32 } %30, 0
  store ptr %31, ptr %7, align 8
  %32 = extractvalue { ptr, i32 } %30, 1
  store i32 %32, ptr %8, align 4
  call void @_ZN4pbrt13InlinedVectorIPNS_15ParsedParameterELi8EN4pstd3pmr21polymorphic_allocatorIS2_EEED2Ev(ptr noundef nonnull align 8 dereferenceable(96) %10) #10
  br label %36

33:                                               ; No predecessors!
  br label %34

34:                                               ; preds = %33, %24
  invoke void @_ZN4pbrt19ParameterDictionary19checkParameterTypesEv(ptr noundef nonnull align 8 dereferenceable(108) %9)
          to label %35 unwind label %29

35:                                               ; preds = %34
  ret void

36:                                               ; preds = %29
  %37 = load ptr, ptr %7, align 8
  %38 = load i32, ptr %8, align 4
  %39 = insertvalue { ptr, i32 } poison, ptr %37, 0
  %40 = insertvalue { ptr, i32 } %39, i32 %38, 1
  resume { ptr, i32 } %40
}