; Function Attrs: mustprogress uwtable
define dso_local void @_ZN4pbrt19ParameterDictionaryC2ENS_13InlinedVectorIPNS_15ParsedParameterELi8EN4pstd3pmr21polymorphic_allocatorIS3_EEEEPKNS_13RGBColorSpaceE(ptr noundef nonnull align 8 dereferenceable(108) initializes((0, 16), (80, 96)) %0, ptr noundef captures(none) %1, ptr noundef %2) unnamed_addr #1 align 2 personality ptr @__gxx_personality_v0 {
  %4 = load i64, ptr %1, align 8, !tbaa !4
  store i64 %4, ptr %0, align 8, !tbaa !4
  %5 = getelementptr inbounds nuw i8, ptr %0, i64 8
  store ptr null, ptr %5, align 8, !tbaa !9
  %6 = getelementptr inbounds nuw i8, ptr %0, i64 80
  %7 = getelementptr inbounds nuw i8, ptr %0, i64 88
  %8 = getelementptr inbounds nuw i8, ptr %1, i64 88
  tail call void @llvm.memset.p0.i64(ptr noundef nonnull align 8 dereferenceable(16) %6, i8 0, i64 16, i1 false)
  %9 = load i64, ptr %8, align 8, !tbaa !15
  store i64 %9, ptr %7, align 8, !tbaa !15
  %10 = getelementptr inbounds nuw i8, ptr %1, i64 80
  %11 = load i64, ptr %10, align 8, !tbaa !16
  store i64 %11, ptr %6, align 8, !tbaa !16
  %12 = getelementptr inbounds nuw i8, ptr %1, i64 8
  %13 = load ptr, ptr %12, align 8, !tbaa !9
  store ptr %13, ptr %5, align 8, !tbaa !9
  %14 = icmp ult i64 %9, 9
  br i1 %14, label %.preheader.i, label %21

.preheader.i:                                     ; preds = %3
  %.not.i = icmp eq i64 %9, 0
  br i1 %.not.i, label %_ZN4pbrt13InlinedVectorIPNS_15ParsedParameterELi8EN4pstd3pmr21polymorphic_allocatorIS2_EEEC2EOS7_.exit, label %.lr.ph.i

.lr.ph.i:                                         ; preds = %.preheader.i
  %15 = getelementptr inbounds nuw i8, ptr %0, i64 16
  %16 = getelementptr inbounds nuw i8, ptr %1, i64 16
  br label %17

17:                                               ; preds = %17, %.lr.ph.i
  %indvars.iv.i = phi i64 [ 0, %.lr.ph.i ], [ %indvars.iv.next.i, %17 ]
  %18 = getelementptr inbounds nuw ptr, ptr %15, i64 %indvars.iv.i
  %19 = getelementptr inbounds nuw [8 x ptr], ptr %16, i64 0, i64 %indvars.iv.i
  %20 = load ptr, ptr %19, align 8, !tbaa !17
  store ptr %20, ptr %18, align 8, !tbaa !17
  %indvars.iv.next.i = add nuw nsw i64 %indvars.iv.i, 1
  %exitcond.not.i = icmp eq i64 %indvars.iv.next.i, %9
  br i1 %exitcond.not.i, label %_ZN4pbrt13InlinedVectorIPNS_15ParsedParameterELi8EN4pstd3pmr21polymorphic_allocatorIS2_EEEC2EOS7_.exit, label %17, !llvm.loop !19

21:                                               ; preds = %3
  store i64 0, ptr %8, align 8, !tbaa !15
  %.pre = load i64, ptr %7, align 8, !tbaa !15
  br label %_ZN4pbrt13InlinedVectorIPNS_15ParsedParameterELi8EN4pstd3pmr21polymorphic_allocatorIS2_EEEC2EOS7_.exit

_ZN4pbrt13InlinedVectorIPNS_15ParsedParameterELi8EN4pstd3pmr21polymorphic_allocatorIS2_EEEC2EOS7_.exit: ; preds = %17, %.preheader.i, %21
  %22 = phi i64 [ 0, %.preheader.i ], [ %.pre, %21 ], [ %9, %17 ]
  store i64 0, ptr %10, align 8, !tbaa !16
  store ptr null, ptr %12, align 8, !tbaa !9
  %23 = getelementptr inbounds nuw i8, ptr %0, i64 96
  store ptr %2, ptr %23, align 8, !tbaa !21
  %24 = trunc i64 %22 to i32
  %25 = getelementptr inbounds nuw i8, ptr %0, i64 104
  store i32 %24, ptr %25, align 8, !tbaa !25
  %26 = load ptr, ptr %5, align 8, !tbaa !9
  %.not.i4 = icmp eq ptr %26, null
  %27 = getelementptr inbounds nuw i8, ptr %0, i64 16
  %28 = select i1 %.not.i4, ptr %27, ptr %26
  %29 = getelementptr inbounds nuw ptr, ptr %28, i64 %22
  %30 = icmp ne i64 %22, 0
  %.012.i.i = getelementptr inbounds i8, ptr %29, i64 -8
  %31 = icmp ult ptr %28, %.012.i.i
  %or.cond.i.i = select i1 %30, i1 %31, i1 false
  br i1 %or.cond.i.i, label %.lr.ph.i.i, label %_ZSt7reverseIPPN4pbrt15ParsedParameterEEvT_S4_.exit

.lr.ph.i.i:                                       ; preds = %_ZN4pbrt13InlinedVectorIPNS_15ParsedParameterELi8EN4pstd3pmr21polymorphic_allocatorIS2_EEEC2EOS7_.exit, %.lr.ph.i.i
  %.014.i.i = phi ptr [ %.0.i.i, %.lr.ph.i.i ], [ %.012.i.i, %_ZN4pbrt13InlinedVectorIPNS_15ParsedParameterELi8EN4pstd3pmr21polymorphic_allocatorIS2_EEEC2EOS7_.exit ]
  %.0913.i.i = phi ptr [ %34, %.lr.ph.i.i ], [ %28, %_ZN4pbrt13InlinedVectorIPNS_15ParsedParameterELi8EN4pstd3pmr21polymorphic_allocatorIS2_EEEC2EOS7_.exit ]
  %32 = load ptr, ptr %.0913.i.i, align 8, !tbaa !17
  %33 = load ptr, ptr %.014.i.i, align 8, !tbaa !17
  store ptr %33, ptr %.0913.i.i, align 8, !tbaa !17
  store ptr %32, ptr %.014.i.i, align 8, !tbaa !17
  %34 = getelementptr inbounds nuw i8, ptr %.0913.i.i, i64 8
  %.0.i.i = getelementptr inbounds i8, ptr %.014.i.i, i64 -8
  %35 = icmp ult ptr %34, %.0.i.i
  br i1 %35, label %.lr.ph.i.i, label %_ZSt7reverseIPPN4pbrt15ParsedParameterEEvT_S4_.exit, !llvm.loop !26

_ZSt7reverseIPPN4pbrt15ParsedParameterEEvT_S4_.exit: ; preds = %.lr.ph.i.i, %_ZN4pbrt13InlinedVectorIPNS_15ParsedParameterELi8EN4pstd3pmr21polymorphic_allocatorIS2_EEEC2EOS7_.exit
  %.not = icmp eq ptr %2, null
  br i1 %.not, label %36, label %40

36:                                               ; preds = %_ZSt7reverseIPPN4pbrt15ParsedParameterEEvT_S4_.exit
  invoke void @_ZN4pbrt8LogFatalIJRA11_KcEEEvNS_8LogLevelEPS1_iS5_DpOT_(i32 noundef 2, ptr noundef nonnull @.str, i32 noundef 146, ptr noundef nonnull @.str.2, ptr noundef nonnull align 1 dereferenceable(11) @.str.3) #28
          to label %37 unwind label %38

37:                                               ; preds = %36
  unreachable

38:                                               ; preds = %40, %36
  %39 = landingpad { ptr, i32 }
          cleanup
  tail call void @_ZN4pbrt13InlinedVectorIPNS_15ParsedParameterELi8EN4pstd3pmr21polymorphic_allocatorIS2_EEED2Ev(ptr noundef nonnull align 8 dereferenceable(96) %0) #29
  resume { ptr, i32 } %39

40:                                               ; preds = %_ZSt7reverseIPPN4pbrt15ParsedParameterEEvT_S4_.exit
  invoke void @_ZN4pbrt19ParameterDictionary19checkParameterTypesEv(ptr noundef nonnull align 8 dereferenceable(108) %0)
          to label %41 unwind label %38

41:                                               ; preds = %40
  ret void
}